target datalayout = "e-m:e-p270:32:32-p271:32:32-p272:64:64-i64:64-i128:128-f80:128-n8:16:32:64-S128"
target triple = "x86_64-pc-linux-gnu"

%struct.regex_matcher = type { %struct.cli_hashtable, i64, ptr, i64, i64, ptr, %struct.cli_matcher, %struct.cli_matcher, %struct.cli_hashset, %struct.cli_matcher, %struct.filter, ptr, i8 }
%struct.cli_hashtable = type { ptr, i64, i64, i64 }
%struct.cli_hashset = type { ptr, ptr, ptr, i32, i32, i32, i32 }
%struct.cli_matcher = type { i32, ptr, ptr, ptr, ptr, i32, i32, i32, i32, i32, %struct.cli_hash_patt, %struct.cli_hash_wild, i32, i32, i32, i32, i32, ptr, ptr, ptr, ptr, ptr, ptr, i32, i32, i8, i8, ptr, i16, i8, i32, ptr, i32, i32, i32, ptr, ptr, i32, ptr, i64, i64, ptr }
%struct.cli_hash_patt = type { [3 x %struct.cli_htu32] }
%struct.cli_htu32 = type { ptr, i64, i64, i64 }
%struct.cli_hash_wild = type { [3 x %struct.cli_sz_hash] }
%struct.cli_sz_hash = type { ptr, ptr, i32 }
%struct.filter = type { [65536 x i8], [65536 x i8], i64 }
%struct.regex_list_ht = type { ptr, ptr }
%struct.regex_list = type { ptr, ptr, ptr }

@.str.22 = private unnamed_addr constant [46 x i8] c"regex_list_done: matcher must be initialized\0A\00", align 1

; Function Attrs: nounwind uwtable
define void @regex_list_done(ptr noundef %0) #0 {
  %2 = alloca ptr, align 8
  %3 = alloca i64, align 8
  %4 = alloca ptr, align 8
  %5 = alloca ptr, align 8
  %6 = alloca ptr, align 8
  store ptr %0, ptr %2, align 8, !tbaa !3
  %7 = load ptr, ptr %2, align 8, !tbaa !3
  %8 = icmp eq ptr null, %7
  br i1 %8, label %9, label %10

9:                                                ; preds = %1
  call void (ptr, ...) @cli_errmsg(ptr noundef @.str.22)
  br label %104

10:                                               ; preds = %1
  %11 = load ptr, ptr %2, align 8, !tbaa !3
  %12 = getelementptr inbounds nuw %struct.regex_matcher, ptr %11, i32 0, i32 12
  %13 = load i8, ptr %12, align 8
  %14 = shl i8 %13, 6
  %15 = ashr i8 %14, 6
  %16 = sext i8 %15 to i32
  %17 = icmp eq i32 %16, 1
  br i1 %17, label %18, label %103

18:                                               ; preds = %10
  call void @llvm.lifetime.start.p0(i64 8, ptr %3) #11
  %19 = load ptr, ptr %2, align 8, !tbaa !3
  %20 = getelementptr inbounds nuw %struct.regex_matcher, ptr %19, i32 0, i32 6
  call void @cli_ac_free(ptr noundef %20)
  %21 = load ptr, ptr %2, align 8, !tbaa !3
  %22 = getelementptr inbounds nuw %struct.regex_matcher, ptr %21, i32 0, i32 2
  %23 = load ptr, ptr %22, align 8, !tbaa !44
  %24 = icmp ne ptr %23, null
  br i1 %24, label %25, label %62

25:                                               ; preds = %18
  store i64 0, ptr %3, align 8, !tbaa !19
  br label %26

26:                                               ; preds = %53, %25
  %27 = load i64, ptr %3, align 8, !tbaa !19
  %28 = load ptr, ptr %2, align 8, !tbaa !3
  %29 = getelementptr inbounds nuw %struct.regex_matcher, ptr %28, i32 0, i32 1
  %30 = load i64, ptr %29, align 8, !tbaa !100
  %31 = icmp ult i64 %27, %30
  br i1 %31, label %32, label %56

32:                                               ; preds = %26
  call void @llvm.lifetime.start.p0(i64 8, ptr %4) #11
  %33 = load ptr, ptr %2, align 8, !tbaa !3
  %34 = getelementptr inbounds nuw %struct.regex_matcher, ptr %33, i32 0, i32 2
  %35 = load ptr, ptr %34, align 8, !tbaa !44
  %36 = load i64, ptr %3, align 8, !tbaa !19
  %37 = getelementptr inbounds nuw %struct.regex_list_ht, ptr %35, i64 %36
  %38 = getelementptr inbounds nuw %struct.regex_list_ht, ptr %37, i32 0, i32 0
  %39 = load ptr, ptr %38, align 8, !tbaa !45
  store ptr %39, ptr %4, align 8, !tbaa !48
  br label %40

40:                                               ; preds = %43, %32
  %41 = load ptr, ptr %4, align 8, !tbaa !48
  %42 = icmp ne ptr %41, null
  br i1 %42, label %43, label %52

43:                                               ; preds = %40
  call void @llvm.lifetime.start.p0(i64 8, ptr %5) #11
  %44 = load ptr, ptr %4, align 8, !tbaa !48
  store ptr %44, ptr %5, align 8, !tbaa !48
  %45 = load ptr, ptr %4, align 8, !tbaa !48
  %46 = getelementptr inbounds nuw %struct.regex_list, ptr %45, i32 0, i32 2
  %47 = load ptr, ptr %46, align 8, !tbaa !54
  store ptr %47, ptr %4, align 8, !tbaa !48
  %48 = load ptr, ptr %5, align 8, !tbaa !48
  %49 = getelementptr inbounds nuw %struct.regex_list, ptr %48, i32 0, i32 0
  %50 = load ptr, ptr %49, align 8, !tbaa !53
  call void @free(ptr noundef %50) #11
  %51 = load ptr, ptr %5, align 8, !tbaa !48
  call void @free(ptr noundef %51) #11
  call void @llvm.lifetime.end.p0(i64 8, ptr %5) #11
  br label %40

52:                                               ; preds = %40
  call void @llvm.lifetime.end.p0(i64 8, ptr %4) #11
  br label %53

53:                                               ; preds = %52
  %54 = load i64, ptr %3, align 8, !tbaa !19
  %55 = add i64 %54, 1
  store i64 %55, ptr %3, align 8, !tbaa !19
  br label %26

56:                                               ; preds = %26
  %57 = load ptr, ptr %2, align 8, !tbaa !3
  %58 = getelementptr inbounds nuw %struct.regex_matcher, ptr %57, i32 0, i32 2
  %59 = load ptr, ptr %58, align 8, !tbaa !44
  call void @free(ptr noundef %59) #11
  %60 = load ptr, ptr %2, align 8, !tbaa !3
  %61 = getelementptr inbounds nuw %struct.regex_matcher, ptr %60, i32 0, i32 2
  store ptr null, ptr %61, align 8, !tbaa !44
  br label %62

62:                                               ; preds = %56, %18
  %63 = load ptr, ptr %2, align 8, !tbaa !3
  %64 = getelementptr inbounds nuw %struct.regex_matcher, ptr %63, i32 0, i32 5
  %65 = load ptr, ptr %64, align 8, !tbaa !101
  %66 = icmp ne ptr %65, null
  br i1 %66, label %67, label %96

67:                                               ; preds = %62
  store i64 0, ptr %3, align 8, !tbaa !19
  br label %68

68:                                               ; preds = %86, %67
  %69 = load i64, ptr %3, align 8, !tbaa !19
  %70 = load ptr, ptr %2, align 8, !tbaa !3
  %71 = getelementptr inbounds nuw %struct.regex_matcher, ptr %70, i32 0, i32 4
  %72 = load i64, ptr %71, align 8, !tbaa !102
  %73 = icmp ult i64 %69, %72
  br i1 %73, label %74, label %89

74:                                               ; preds = %68
  call void @llvm.lifetime.start.p0(i64 8, ptr %6) #11
  %75 = load ptr, ptr %2, align 8, !tbaa !3
  %76 = getelementptr inbounds nuw %struct.regex_matcher, ptr %75, i32 0, i32 5
  %77 = load ptr, ptr %76, align 8, !tbaa !101
  %78 = load i64, ptr %3, align 8, !tbaa !19
  %79 = getelementptr inbounds nuw ptr, ptr %77, i64 %78
  %80 = load ptr, ptr %79, align 8, !tbaa !91
  store ptr %80, ptr %6, align 8, !tbaa !91
  %81 = load ptr, ptr %6, align 8, !tbaa !91
  call void @cli_regfree(ptr noundef %81)
  %82 = load ptr, ptr %2, align 8, !tbaa !3
  %83 = getelementptr inbounds nuw %struct.regex_matcher, ptr %82, i32 0, i32 11
  %84 = load ptr, ptr %83, align 8, !tbaa !57
  %85 = load ptr, ptr %6, align 8, !tbaa !91
  call void @mpool_free(ptr noundef %84, ptr noundef %85)
  call void @llvm.lifetime.end.p0(i64 8, ptr %6) #11
  br label %86

86:                                               ; preds = %74
  %87 = load i64, ptr %3, align 8, !tbaa !19
  %88 = add i64 %87, 1
  store i64 %88, ptr %3, align 8, !tbaa !19
  br label %68

89:                                               ; preds = %68
  %90 = load ptr, ptr %2, align 8, !tbaa !3
  %91 = getelementptr inbounds nuw %struct.regex_matcher, ptr %90, i32 0, i32 11
  %92 = load ptr, ptr %91, align 8, !tbaa !57
  %93 = load ptr, ptr %2, align 8, !tbaa !3
  %94 = getelementptr inbounds nuw %struct.regex_matcher, ptr %93, i32 0, i32 5
  %95 = load ptr, ptr %94, align 8, !tbaa !101
  call void @mpool_free(ptr noundef %92, ptr noundef %95)
  br label %96

96:                                               ; preds = %89, %62
  %97 = load ptr, ptr %2, align 8, !tbaa !3
  %98 = getelementptr inbounds nuw %struct.regex_matcher, ptr %97, i32 0, i32 0
  call void @cli_hashtab_free(ptr noundef %98)
  %99 = load ptr, ptr %2, align 8, !tbaa !3
  %100 = getelementptr inbounds nuw %struct.regex_matcher, ptr %99, i32 0, i32 7
  call void @cli_bm_free(ptr noundef %100)
  %101 = load ptr, ptr %2, align 8, !tbaa !3
  %102 = getelementptr inbounds nuw %struct.regex_matcher, ptr %101, i32 0, i32 9
  call void @cli_bm_free(ptr noundef %102)
  call void @llvm.lifetime.end.p0(i64 8, ptr %3) #11
  br label %103

103:                                              ; preds = %96, %10
  br label %104

104:                                              ; preds = %103, %9
  ret void
}