; Function Attrs: nounwind uwtable
define void @regex_list_done(ptr noundef %0) local_unnamed_addr #0 {
  %2 = icmp eq ptr %0, null
  br i1 %2, label %3, label %4

3:                                                ; preds = %1
  tail call void (ptr, ...) @cli_errmsg(ptr noundef nonnull @.str.22) #14
  br label %45

4:                                                ; preds = %1
  %5 = getelementptr inbounds nuw i8, ptr %0, i64 132448
  %6 = load i8, ptr %5, align 8
  %.mask = and i8 %6, 3
  %7 = icmp eq i8 %.mask, 1
  br i1 %7, label %8, label %45

8:                                                ; preds = %4
  %9 = getelementptr inbounds nuw i8, ptr %0, i64 72
  tail call void @cli_ac_free(ptr noundef nonnull %9) #14
  %10 = getelementptr inbounds nuw i8, ptr %0, i64 40
  %11 = load ptr, ptr %10, align 8, !tbaa !36
  %.not = icmp eq ptr %11, null
  br i1 %.not, label %25, label %.preheader33

.preheader33:                                     ; preds = %8
  %12 = getelementptr inbounds nuw i8, ptr %0, i64 32
  %13 = load i64, ptr %12, align 8, !tbaa !83
  %.not42 = icmp eq i64 %13, 0
  br i1 %.not42, label %._crit_edge38, label %.lr.ph37

.lr.ph37:                                         ; preds = %.preheader33, %._crit_edge
  %14 = phi i64 [ %21, %._crit_edge ], [ %13, %.preheader33 ]
  %.036 = phi i64 [ %22, %._crit_edge ], [ 0, %.preheader33 ]
  %15 = load ptr, ptr %10, align 8, !tbaa !36
  %16 = getelementptr inbounds nuw %struct.regex_list_ht, ptr %15, i64 %.036
  %17 = load ptr, ptr %16, align 8, !tbaa !84
  %.not3234 = icmp eq ptr %17, null
  br i1 %.not3234, label %._crit_edge, label %.lr.ph

.lr.ph:                                           ; preds = %.lr.ph37, %.lr.ph
  %.02935 = phi ptr [ %19, %.lr.ph ], [ %17, %.lr.ph37 ]
  %18 = getelementptr inbounds nuw i8, ptr %.02935, i64 16
  %19 = load ptr, ptr %18, align 8, !tbaa !76
  %20 = load ptr, ptr %.02935, align 8, !tbaa !42
  tail call void @free(ptr noundef %20) #14
  tail call void @free(ptr noundef nonnull %.02935) #14
  %.not32 = icmp eq ptr %19, null
  br i1 %.not32, label %._crit_edge.loopexit, label %.lr.ph

._crit_edge.loopexit:                             ; preds = %.lr.ph
  %.pre = load i64, ptr %12, align 8, !tbaa !83
  br label %._crit_edge

._crit_edge:                                      ; preds = %._crit_edge.loopexit, %.lr.ph37
  %21 = phi i64 [ %.pre, %._crit_edge.loopexit ], [ %14, %.lr.ph37 ]
  %22 = add nuw i64 %.036, 1
  %23 = icmp ult i64 %22, %21
  br i1 %23, label %.lr.ph37, label %._crit_edge38.loopexit

._crit_edge38.loopexit:                           ; preds = %._crit_edge
  %.pre44 = load ptr, ptr %10, align 8, !tbaa !36
  br label %._crit_edge38

._crit_edge38:                                    ; preds = %._crit_edge38.loopexit, %.preheader33
  %24 = phi ptr [ %.pre44, %._crit_edge38.loopexit ], [ %11, %.preheader33 ]
  tail call void @free(ptr noundef %24) #14
  store ptr null, ptr %10, align 8, !tbaa !36
  br label %25

25:                                               ; preds = %._crit_edge38, %8
  %26 = getelementptr inbounds nuw i8, ptr %0, i64 64
  %27 = load ptr, ptr %26, align 8, !tbaa !74
  %.not31 = icmp eq ptr %27, null
  br i1 %.not31, label %42, label %.preheader

.preheader:                                       ; preds = %25
  %28 = getelementptr inbounds nuw i8, ptr %0, i64 56
  %29 = load i64, ptr %28, align 8, !tbaa !75
  %.not43 = icmp eq i64 %29, 0
  br i1 %.not43, label %._crit_edge41, label %.lr.ph40

.lr.ph40:                                         ; preds = %.preheader
  %30 = getelementptr inbounds nuw i8, ptr %0, i64 132440
  br label %31

31:                                               ; preds = %.lr.ph40, %31
  %.139 = phi i64 [ 0, %.lr.ph40 ], [ %36, %31 ]
  %32 = load ptr, ptr %26, align 8, !tbaa !74
  %33 = getelementptr inbounds nuw ptr, ptr %32, i64 %.139
  %34 = load ptr, ptr %33, align 8, !tbaa !37
  tail call void @cli_regfree(ptr noundef %34) #14
  %35 = load ptr, ptr %30, align 8, !tbaa !45
  tail call void @mpool_free(ptr noundef %35, ptr noundef %34) #14
  %36 = add nuw i64 %.139, 1
  %37 = load i64, ptr %28, align 8, !tbaa !75
  %38 = icmp ult i64 %36, %37
  br i1 %38, label %31, label %._crit_edge41.loopexit

._crit_edge41.loopexit:                           ; preds = %31
  %.pre45 = load ptr, ptr %26, align 8, !tbaa !74
  br label %._crit_edge41

._crit_edge41:                                    ; preds = %._crit_edge41.loopexit, %.preheader
  %39 = phi ptr [ %.pre45, %._crit_edge41.loopexit ], [ %27, %.preheader ]
  %40 = getelementptr inbounds nuw i8, ptr %0, i64 132440
  %41 = load ptr, ptr %40, align 8, !tbaa !45
  tail call void @mpool_free(ptr noundef %41, ptr noundef %39) #14
  br label %42

42:                                               ; preds = %._crit_edge41, %25
  tail call void @cli_hashtab_free(ptr noundef nonnull %0) #14
  %43 = getelementptr inbounds nuw i8, ptr %0, i64 488
  tail call void @cli_bm_free(ptr noundef nonnull %43) #14
  %44 = getelementptr inbounds nuw i8, ptr %0, i64 944
  tail call void @cli_bm_free(ptr noundef nonnull %44) #14
  br label %45

45:                                               ; preds = %4, %42, %3
  ret void
}